; Function Attrs: nounwind uwtable
define void @b2Body_ApplyForceToCenter(i64 %0, <2 x float> %1, i1 noundef zeroext %2) local_unnamed_addr #8 {
  %.sroa.2.0.extract.shift = lshr i64 %0, 32
  %4 = trunc nuw i64 %.sroa.2.0.extract.shift to i32
  %5 = and i32 %4, 65535
  %6 = tail call ptr @b2GetWorld(i32 noundef %5) #10
  %7 = getelementptr inbounds nuw i8, ptr %6, i64 1032
  %.val.i = load ptr, ptr %7, align 8, !tbaa !10
  %8 = shl i64 %0, 32
  %sext.i = add i64 %8, -4294967296
  %9 = ashr exact i64 %sext.i, 25
  %10 = getelementptr inbounds i8, ptr %.val.i, i64 %9
  br i1 %2, label %11, label %15

11:                                               ; preds = %3
  %12 = getelementptr inbounds nuw i8, ptr %10, i64 40
  %13 = load i32, ptr %12, align 8, !tbaa !19
  %14 = icmp sgt i32 %13, 2
  br i1 %14, label %b2WakeBody.exit, label %15

b2WakeBody.exit:                                  ; preds = %11
  tail call void @b2WakeSolverSet(ptr noundef nonnull %6, i32 noundef %13) #10
  br label %15

15:                                               ; preds = %b2WakeBody.exit, %11, %3
  %16 = getelementptr inbounds nuw i8, ptr %10, i64 40
  %17 = load i32, ptr %16, align 8, !tbaa !19
  %18 = icmp eq i32 %17, 2
  br i1 %18, label %19, label %27

19:                                               ; preds = %15
  %20 = getelementptr inbounds nuw i8, ptr %6, i64 1072
  %.val.i11 = load ptr, ptr %20, align 8, !tbaa !24
  %21 = getelementptr inbounds nuw i8, ptr %.val.i11, i64 176
  %22 = getelementptr inbounds nuw i8, ptr %10, i64 44
  %23 = load i32, ptr %22, align 4, !tbaa !27
  %.val5.i = load ptr, ptr %21, align 8, !tbaa !14
  %24 = sext i32 %23 to i64
  %25 = getelementptr inbounds %struct.b2BodySim, ptr %.val5.i, i64 %24, i32 5
  %26 = load <2 x float>, ptr %25, align 4
  %.sroa.02.4.vec.insert.i = fadd <2 x float> %1, %26
  store <2 x float> %.sroa.02.4.vec.insert.i, ptr %25, align 4
  br label %27

27:                                               ; preds = %19, %15
  ret void
}